---
triple:          'arm64-apple-darwin'
binary-path:     ohlc_features_cpp
relocations:
  - { offsetInCU: 0x1230C, offset: 0x1230C, size: 0x8, addend: 0x0, symName: __ZNSt3__124__put_character_sequenceB8ue170006IcNS_11char_traitsIcEEEERNS_13basic_ostreamIT_T0_EES7_PKS4_m, symObjAddr: 0x1008, symBinAddr: 0x100003DB8, symSize: 0x164 }
  - { offsetInCU: 0x15294, offset: 0x15294, size: 0x8, addend: 0x0, symName: __ZNSt3__14endlB8ue170006IcNS_11char_traitsIcEEEERNS_13basic_ostreamIT_T0_EES7_, symObjAddr: 0x8C8, symBinAddr: 0x100003678, symSize: 0x90 }
  - { offsetInCU: 0x15321, offset: 0x15321, size: 0x8, addend: 0x0, symName: __ZNSt3__120__throw_length_errorB8ue170006EPKc, symObjAddr: 0x9D8, symBinAddr: 0x100003788, symSize: 0x50 }
  - { offsetInCU: 0x153C6, offset: 0x153C6, size: 0x8, addend: 0x0, symName: __ZNSt3__116__pad_and_outputB8ue170006IcNS_11char_traitsIcEEEENS_19ostreambuf_iteratorIT_T0_EES6_PKS4_S8_S8_RNS_8ios_baseES4_, symObjAddr: 0x116C, symBinAddr: 0x100003F1C, symSize: 0x1A0 }
  - { offsetInCU: 0x1A597, offset: 0x1A597, size: 0x8, addend: 0x0, symName: _main, symObjAddr: 0x0, symBinAddr: 0x100002DB0, symSize: 0x8C8 }
  - { offsetInCU: 0x1D4CF, offset: 0x1D4CF, size: 0x8, addend: 0x0, symName: __ZNSt3__112basic_stringIcNS_11char_traitsIcEENS_9allocatorIcEEE17__assign_externalEPKcm, symObjAddr: 0xA4C, symBinAddr: 0x1000037FC, symSize: 0x134 }
  - { offsetInCU: 0x1DAE9, offset: 0x1DAE9, size: 0x8, addend: 0x0, symName: __ZN18BatchOHLCProcessor10FeatureSetD2Ev, symObjAddr: 0xB80, symBinAddr: 0x100003930, symSize: 0x170 }
  - { offsetInCU: 0x1DAFB, offset: 0x1DAFB, size: 0x8, addend: 0x0, symName: __ZNSt3__112basic_stringIcNS_11char_traitsIcEENS_9allocatorIcEEE6appendB8ue170006IPKcLi0EEERS5_T_SA_, symObjAddr: 0xD80, symBinAddr: 0x100003B30, symSize: 0x288 }
  - { offsetInCU: 0x1E7F5, offset: 0x1E7F5, size: 0x8, addend: 0x0, symName: __ZN18BatchOHLCProcessor10FeatureSetD2Ev, symObjAddr: 0xB80, symBinAddr: 0x100003930, symSize: 0x170 }
  - { offsetInCU: 0x20298, offset: 0x20298, size: 0x8, addend: 0x0, symName: __ZN9OHLCVDataD2Ev, symObjAddr: 0xCF0, symBinAddr: 0x100003AA0, symSize: 0x90 }
  - { offsetInCU: 0x20B64, offset: 0x20B64, size: 0x8, addend: 0x0, symName: __ZNKSt3__112basic_stringIcNS_11char_traitsIcEENS_9allocatorIcEEE20__throw_length_errorB8ue170006Ev, symObjAddr: 0x9C4, symBinAddr: 0x100003774, symSize: 0x14 }
  - { offsetInCU: 0x20B8E, offset: 0x20B8E, size: 0x8, addend: 0x0, symName: __ZNSt3__120__throw_length_errorB8ue170006EPKc, symObjAddr: 0x9D8, symBinAddr: 0x100003788, symSize: 0x50 }
  - { offsetInCU: 0x20B99, offset: 0x20B99, size: 0x8, addend: 0x0, symName: __ZNSt3__16vectorINS_10unique_ptrI9OHLCVDataNS_14default_deleteIS2_EEEENS_9allocatorIS5_EEED1B8ue170006Ev, symObjAddr: 0x958, symBinAddr: 0x100003708, symSize: 0x60 }
  - { offsetInCU: 0x20E1A, offset: 0x20E1A, size: 0x8, addend: 0x0, symName: __ZNSt12length_errorC1B8ue170006EPKc, symObjAddr: 0xA28, symBinAddr: 0x1000037D8, symSize: 0x24 }
  - { offsetInCU: 0x12051, offset: 0x337C0, size: 0x8, addend: 0x0, symName: __ZNSt3__1rsB8ue170006IcNS_11char_traitsIcEEEERNS_13basic_istreamIT_T0_EES7_RKNS_8__iom_t9IS4_EE, symObjAddr: 0x3E4, symBinAddr: 0x1000044A0, symSize: 0x134 }
  - { offsetInCU: 0x15918, offset: 0x37087, size: 0x8, addend: 0x0, symName: __ZNSt3__17getlineB8ue170006IcNS_11char_traitsIcEENS_9allocatorIcEEEERNS_13basic_istreamIT_T0_EES9_RNS_12basic_stringIS6_S7_T1_EES6_, symObjAddr: 0x186C, symBinAddr: 0x100005928, symSize: 0x1A8 }
  - { offsetInCU: 0x1642B, offset: 0x37B9A, size: 0x8, addend: 0x0, symName: __ZSt28__throw_bad_array_new_lengthB8ue170006v, symObjAddr: 0x23AC, symBinAddr: 0x100006374, symSize: 0x28 }
  - { offsetInCU: 0x1932F, offset: 0x3AA9E, size: 0x8, addend: 0x0, symName: __ZN13FastCSVReader9fast_atofEPKcPS1_, symObjAddr: 0x0, symBinAddr: 0x1000040BC, symSize: 0x118 }
  - { offsetInCU: 0x195A4, offset: 0x3AD13, size: 0x8, addend: 0x0, symName: __ZN13FastCSVReader15parse_timestampERKNSt3__112basic_stringIcNS0_11char_traitsIcEENS0_9allocatorIcEEEE, symObjAddr: 0x118, symBinAddr: 0x1000041D4, symSize: 0x194 }
  - { offsetInCU: 0x1986B, offset: 0x3AFDA, size: 0x8, addend: 0x0, symName: __ZNSt3__119basic_istringstreamIcNS_11char_traitsIcEENS_9allocatorIcEEEC1B8ue170006ERKNS_12basic_stringIcS2_S4_EEj, symObjAddr: 0x2AC, symBinAddr: 0x100004368, symSize: 0x138 }
  - { offsetInCU: 0x19A9C, offset: 0x3B20B, size: 0x8, addend: 0x0, symName: __ZNSt3__115basic_stringbufIcNS_11char_traitsIcEENS_9allocatorIcEEE15__init_buf_ptrsB8ue170006Ev, symObjAddr: 0x27B4, symBinAddr: 0x10000677C, symSize: 0x178 }
  - { offsetInCU: 0x19E49, offset: 0x3B5B8, size: 0x8, addend: 0x0, symName: __ZNSt3__119basic_istringstreamIcNS_11char_traitsIcEENS_9allocatorIcEEED1Ev, symObjAddr: 0x518, symBinAddr: 0x1000045D4, symSize: 0x84 }
  - { offsetInCU: 0x1B324, offset: 0x3CA93, size: 0x8, addend: 0x0, symName: __ZN13FastCSVReader13read_csv_fileERKNSt3__112basic_stringIcNS0_11char_traitsIcEENS0_9allocatorIcEEEE, symObjAddr: 0x59C, symBinAddr: 0x100004658, symSize: 0xD60 }
  - { offsetInCU: 0x1ED07, offset: 0x40476, size: 0x8, addend: 0x0, symName: __ZNSt3__114basic_ifstreamIcNS_11char_traitsIcEEEC1ERKNS_12basic_stringIcS2_NS_9allocatorIcEEEEj, symObjAddr: 0x12FC, symBinAddr: 0x1000053B8, symSize: 0x118 }
  - { offsetInCU: 0x1EE89, offset: 0x405F8, size: 0x8, addend: 0x0, symName: __ZN9OHLCVData7reserveEm, symObjAddr: 0x1414, symBinAddr: 0x1000054D0, symSize: 0x2E4 }
  - { offsetInCU: 0x1FFB3, offset: 0x41722, size: 0x8, addend: 0x0, symName: __ZNSt3__118basic_stringstreamIcNS_11char_traitsIcEENS_9allocatorIcEEEC1B8ue170006ERKNS_12basic_stringIcS2_S4_EEj, symObjAddr: 0x16F8, symBinAddr: 0x1000057B4, symSize: 0x174 }
  - { offsetInCU: 0x1FFBE, offset: 0x4172D, size: 0x8, addend: 0x0, symName: __ZNSt3__118basic_stringstreamIcNS_11char_traitsIcEENS_9allocatorIcEEEC1B8ue170006ERKNS_12basic_stringIcS2_S4_EEj, symObjAddr: 0x16F8, symBinAddr: 0x1000057B4, symSize: 0x174 }
  - { offsetInCU: 0x20239, offset: 0x419A8, size: 0x8, addend: 0x0, symName: __ZNSt3__16vectorINS_12basic_stringIcNS_11char_traitsIcEENS_9allocatorIcEEEENS4_IS6_EEE21__push_back_slow_pathIRKS6_EEvOT_, symObjAddr: 0x23FC, symBinAddr: 0x1000063C4, symSize: 0x22C }
  - { offsetInCU: 0x20CEB, offset: 0x4245A, size: 0x8, addend: 0x0, symName: __ZNKSt3__16vectorINS_6chrono10time_pointINS1_12system_clockENS1_8durationIxNS_5ratioILl1ELl1000000EEEEEEENS_9allocatorIS8_EEE20__throw_length_errorB8ue170006Ev, symObjAddr: 0x23E8, symBinAddr: 0x1000063B0, symSize: 0x14 }
  - { offsetInCU: 0x20D15, offset: 0x42484, size: 0x8, addend: 0x0, symName: __ZNSt3__16vectorINS_12basic_stringIcNS_11char_traitsIcEENS_9allocatorIcEEEENS4_IS6_EEE21__push_back_slow_pathIRKS6_EEvOT_, symObjAddr: 0x23FC, symBinAddr: 0x1000063C4, symSize: 0x22C }
  - { offsetInCU: 0x20D20, offset: 0x4248F, size: 0x8, addend: 0x0, symName: __ZNKSt3__16vectorIdNS_9allocatorIdEEE20__throw_length_errorB8ue170006Ev, symObjAddr: 0x23D4, symBinAddr: 0x10000639C, symSize: 0x14 }
  - { offsetInCU: 0x20D4A, offset: 0x424B9, size: 0x8, addend: 0x0, symName: __ZNKSt3__16vectorINS_6chrono10time_pointINS1_12system_clockENS1_8durationIxNS_5ratioILl1ELl1000000EEEEEEENS_9allocatorIS8_EEE20__throw_length_errorB8ue170006Ev, symObjAddr: 0x23E8, symBinAddr: 0x1000063B0, symSize: 0x14 }
  - { offsetInCU: 0x20D55, offset: 0x424C4, size: 0x8, addend: 0x0, symName: __ZNSt3__16vectorINS_6chrono10time_pointINS1_12system_clockENS1_8durationIxNS_5ratioILl1ELl1000000EEEEEEENS_9allocatorIS8_EEE9push_backB8ue170006ERKS8_, symObjAddr: 0x1A14, symBinAddr: 0x100005AD0, symSize: 0xF8 }
  - { offsetInCU: 0x21204, offset: 0x42973, size: 0x8, addend: 0x0, symName: __ZNSt3__118basic_stringstreamIcNS_11char_traitsIcEENS_9allocatorIcEEED1Ev, symObjAddr: 0x1B18, symBinAddr: 0x100005BC8, symSize: 0x88 }
  - { offsetInCU: 0x213A2, offset: 0x42B11, size: 0x8, addend: 0x0, symName: __ZNSt3__16vectorINS_12basic_stringIcNS_11char_traitsIcEENS_9allocatorIcEEEENS4_IS6_EEED1B8ue170006Ev, symObjAddr: 0x1BA0, symBinAddr: 0x100005C50, symSize: 0x6C }
  - { offsetInCU: 0x2166A, offset: 0x42DD9, size: 0x8, addend: 0x0, symName: __ZNSt3__110unique_ptrI9OHLCVDataNS_14default_deleteIS1_EEED1B8ue170006Ev, symObjAddr: 0x1C0C, symBinAddr: 0x100005CBC, symSize: 0x34 }
  - { offsetInCU: 0x21724, offset: 0x42E93, size: 0x8, addend: 0x0, symName: __ZNSt3__114basic_ifstreamIcNS_11char_traitsIcEEED1Ev, symObjAddr: 0x1C40, symBinAddr: 0x100005CF0, symSize: 0x58 }
  - { offsetInCU: 0x228D8, offset: 0x44047, size: 0x8, addend: 0x0, symName: __ZN13FastCSVReader14read_directoryERKNSt3__112basic_stringIcNS0_11char_traitsIcEENS0_9allocatorIcEEEE, symObjAddr: 0x1C98, symBinAddr: 0x100005D48, symSize: 0x5DC }
  - { offsetInCU: 0x25514, offset: 0x46C83, size: 0x8, addend: 0x0, symName: __ZNSt3__16vectorINS_10unique_ptrI9OHLCVDataNS_14default_deleteIS2_EEEENS_9allocatorIS5_EEE21__push_back_slow_pathIS5_EEvOT_, symObjAddr: 0x2698, symBinAddr: 0x100006660, symSize: 0x108 }
  - { offsetInCU: 0x25BAE, offset: 0x4731D, size: 0x8, addend: 0x0, symName: __ZNKSt3__16vectorINS_10unique_ptrI9OHLCVDataNS_14default_deleteIS2_EEEENS_9allocatorIS5_EEE20__throw_length_errorB8ue170006Ev, symObjAddr: 0x27A0, symBinAddr: 0x100006768, symSize: 0x14 }
  - { offsetInCU: 0x25BC2, offset: 0x47331, size: 0x8, addend: 0x0, symName: __ZNSt3__14__fs10filesystem18directory_iteratorD1B8ue170006Ev, symObjAddr: 0x2274, symBinAddr: 0x100006324, symSize: 0x50 }
  - { offsetInCU: 0x262AE, offset: 0x47A1D, size: 0x8, addend: 0x0, symName: __ZNKSt3__16vectorINS_12basic_stringIcNS_11char_traitsIcEENS_9allocatorIcEEEENS4_IS6_EEE20__throw_length_errorB8ue170006Ev, symObjAddr: 0x2684, symBinAddr: 0x10000664C, symSize: 0x14 }
  - { offsetInCU: 0x262D8, offset: 0x47A47, size: 0x8, addend: 0x0, symName: __ZNSt3__16vectorINS_10unique_ptrI9OHLCVDataNS_14default_deleteIS2_EEEENS_9allocatorIS5_EEE21__push_back_slow_pathIS5_EEvOT_, symObjAddr: 0x2698, symBinAddr: 0x100006660, symSize: 0x108 }
  - { offsetInCU: 0x262E3, offset: 0x47A52, size: 0x8, addend: 0x0, symName: __ZNSt3__114__split_bufferINS_12basic_stringIcNS_11char_traitsIcEENS_9allocatorIcEEEERNS4_IS6_EEED1Ev, symObjAddr: 0x2628, symBinAddr: 0x1000065F0, symSize: 0x5C }
  - { offsetInCU: 0x2677F, offset: 0x47EEE, size: 0x8, addend: 0x0, symName: __ZNKSt3__16vectorINS_10unique_ptrI9OHLCVDataNS_14default_deleteIS2_EEEENS_9allocatorIS5_EEE20__throw_length_errorB8ue170006Ev, symObjAddr: 0x27A0, symBinAddr: 0x100006768, symSize: 0x14 }
  - { offsetInCU: 0x267A9, offset: 0x47F18, size: 0x8, addend: 0x0, symName: __ZNSt3__115basic_stringbufIcNS_11char_traitsIcEENS_9allocatorIcEEE15__init_buf_ptrsB8ue170006Ev, symObjAddr: 0x27B4, symBinAddr: 0x10000677C, symSize: 0x178 }
  - { offsetInCU: 0x7EDE, offset: 0x50373, size: 0x8, addend: 0x0, symName: __ZNSt3__1plB8ue170006IcNS_11char_traitsIcEENS_9allocatorIcEEEENS_12basic_stringIT_T0_T1_EEPKS6_OS9_, symObjAddr: 0x76C, symBinAddr: 0x100007060, symSize: 0x5C }
  - { offsetInCU: 0xC7C0, offset: 0x54C55, size: 0x8, addend: 0x0, symName: __ZN18BatchOHLCProcessorC2Ev, symObjAddr: 0x0, symBinAddr: 0x1000068F4, symSize: 0xA4 }
  - { offsetInCU: 0xCC30, offset: 0x550C5, size: 0x8, addend: 0x0, symName: __ZN18BatchOHLCProcessorC1Ev, symObjAddr: 0xA4, symBinAddr: 0x100006998, symSize: 0xA4 }
  - { offsetInCU: 0xD28E, offset: 0x55723, size: 0x8, addend: 0x0, symName: __ZN18BatchOHLCProcessor10FeatureSet10resize_allEm, symObjAddr: 0x148, symBinAddr: 0x100006A3C, symSize: 0x624 }
  - { offsetInCU: 0xE278, offset: 0x5670D, size: 0x8, addend: 0x0, symName: __ZNSt3__16vectorIdNS_9allocatorIdEEE8__appendEmRKd, symObjAddr: 0x2220, symBinAddr: 0x1000089C8, symSize: 0x12C }
  - { offsetInCU: 0xE765, offset: 0x56BFA, size: 0x8, addend: 0x0, symName: __ZNSt3__16vectorIiNS_9allocatorIiEEE8__appendEmRKi, symObjAddr: 0x234C, symBinAddr: 0x100008AF4, symSize: 0x12C }
  - { offsetInCU: 0xE770, offset: 0x56C05, size: 0x8, addend: 0x0, symName: __ZNSt3__16vectorIiNS_9allocatorIiEEE8__appendEmRKi, symObjAddr: 0x234C, symBinAddr: 0x100008AF4, symSize: 0x12C }
  - { offsetInCU: 0xEC5D, offset: 0x570F2, size: 0x8, addend: 0x0, symName: __ZNKSt3__16vectorIiNS_9allocatorIiEEE20__throw_length_errorB8ue170006Ev, symObjAddr: 0x2478, symBinAddr: 0x100008C20, symSize: 0x14 }
  - { offsetInCU: 0xEC6E, offset: 0x57103, size: 0x8, addend: 0x0, symName: __ZNSt3__112basic_stringIcNS_11char_traitsIcEENS_9allocatorIcEEEC1B8ue170006ILi0EEEPKc, symObjAddr: 0x7C8, symBinAddr: 0x1000070BC, symSize: 0xA8 }
  - { offsetInCU: 0xF2F5, offset: 0x5778A, size: 0x8, addend: 0x0, symName: __ZN18BatchOHLCProcessor10FeatureSet9clear_allEv, symObjAddr: 0x87C, symBinAddr: 0x100007164, symSize: 0xAC }
  - { offsetInCU: 0xF31E, offset: 0x577B3, size: 0x8, addend: 0x0, symName: __ZN18BatchOHLCProcessor10FeatureSet9clear_allEv, symObjAddr: 0x87C, symBinAddr: 0x100007164, symSize: 0xAC }
  - { offsetInCU: 0xF33F, offset: 0x577D4, size: 0x8, addend: 0x0, symName: __ZN18BatchOHLCProcessor10FeatureSet9clear_allEv, symObjAddr: 0x87C, symBinAddr: 0x100007164, symSize: 0xAC }
  - { offsetInCU: 0x10162, offset: 0x585F7, size: 0x8, addend: 0x0, symName: __ZN18BatchOHLCProcessor28calculate_organized_featuresERKNSt3__16vectorIdNS0_9allocatorIdEEEES6_S6_S6_S6_, symObjAddr: 0x928, symBinAddr: 0x100007210, symSize: 0xA58 }
  - { offsetInCU: 0x144A0, offset: 0x5C935, size: 0x8, addend: 0x0, symName: __ZNSt3__14pairINS_6vectorIiNS_9allocatorIiEEEENS0_INS1_IdNS2_IdEEEES6_EEED1Ev, symObjAddr: 0x1380, symBinAddr: 0x100007C68, symSize: 0x50 }
  - { offsetInCU: 0x15A02, offset: 0x5DE97, size: 0x8, addend: 0x0, symName: __ZN18BatchOHLCProcessor24batch_calculate_featuresERKNSt3__16vectorINS1_IdNS0_9allocatorIdEEEENS2_IS4_EEEES8_ii, symObjAddr: 0x13D0, symBinAddr: 0x100007CB8, symSize: 0x1EC }
  - { offsetInCU: 0x160DB, offset: 0x5E570, size: 0x8, addend: 0x0, symName: __ZNSt3__16vectorINS0_IdNS_9allocatorIdEEEENS1_IS3_EEEC1Em, symObjAddr: 0x15BC, symBinAddr: 0x100007EA4, symSize: 0xC8 }
  - { offsetInCU: 0x16349, offset: 0x5E7DE, size: 0x8, addend: 0x0, symName: __ZN18BatchOHLCProcessor24calculate_stock_featuresERKNSt3__16vectorIdNS0_9allocatorIdEEEES6_ii, symObjAddr: 0x1684, symBinAddr: 0x100007F6C, symSize: 0x3E8 }
  - { offsetInCU: 0x1805B, offset: 0x604F0, size: 0x8, addend: 0x0, symName: __ZNSt3__16vectorINS0_IdNS_9allocatorIdEEEENS1_IS3_EEED1B8ue170006Ev, symObjAddr: 0x1AFC, symBinAddr: 0x100008354, symSize: 0x70 }
  - { offsetInCU: 0x1851D, offset: 0x609B2, size: 0x8, addend: 0x0, symName: __ZNKSt3__16vectorINS0_IdNS_9allocatorIdEEEENS1_IS3_EEE20__throw_length_errorB8ue170006Ev, symObjAddr: 0x2610, symBinAddr: 0x100008C34, symSize: 0x14 }
  - { offsetInCU: 0x18547, offset: 0x609DC, size: 0x8, addend: 0x0, symName: __ZNSt3__16vectorIdNS_9allocatorIdEEE18__insert_with_sizeB8ue170006INS_11__wrap_iterIPdEES7_EES7_NS5_IPKdEET_T0_l, symObjAddr: 0x2624, symBinAddr: 0x100008C48, symSize: 0x208 }
  - { offsetInCU: 0x18552, offset: 0x609E7, size: 0x8, addend: 0x0, symName: __ZNSt3__16vectorINS0_IdNS_9allocatorIdEEEENS1_IS3_EEEC1Em.cold.1, symObjAddr: 0x2B30, symBinAddr: 0x10000E52C, symSize: 0x60 }
  - { offsetInCU: 0x188EC, offset: 0x60D81, size: 0x8, addend: 0x0, symName: __ZNSt3__16vectorIdNS_9allocatorIdEEE18__insert_with_sizeB8ue170006INS_11__wrap_iterIPdEES7_EES7_NS5_IPKdEET_T0_l, symObjAddr: 0x2624, symBinAddr: 0x100008C48, symSize: 0x208 }
  - { offsetInCU: 0x19680, offset: 0x61B15, size: 0x8, addend: 0x0, symName: __ZN18BatchOHLCProcessor32calculate_comprehensive_featuresERKNSt3__16vectorIdNS0_9allocatorIdEEEES6_S6_S6_S6_, symObjAddr: 0x1B6C, symBinAddr: 0x1000083C4, symSize: 0x408 }
  - { offsetInCU: 0x1B3E6, offset: 0x6387B, size: 0x8, addend: 0x0, symName: __ZN18BatchOHLCProcessor38batch_calculate_comprehensive_featuresERKNSt3__16vectorINS1_IdNS0_9allocatorIdEEEENS2_IS4_EEEES8_S8_S8_S8_, symObjAddr: 0x1F74, symBinAddr: 0x1000087CC, symSize: 0x1FC }
  - { offsetInCU: 0x1C031, offset: 0x644C6, size: 0x8, addend: 0x0, symName: __ZNKSt3__16vectorIiNS_9allocatorIiEEE20__throw_length_errorB8ue170006Ev, symObjAddr: 0x2478, symBinAddr: 0x100008C20, symSize: 0x14 }
  - { offsetInCU: 0x26, offset: 0x64B31, size: 0x8, addend: 0x0, symName: __ZN19TechnicalIndicators17calculate_returnsERKNSt3__16vectorIdNS0_9allocatorIdEEEE, symObjAddr: 0x0, symBinAddr: 0x100008E50, symSize: 0x2A0 }
  - { offsetInCU: 0x5766, offset: 0x6A271, size: 0x8, addend: 0x0, symName: __ZN19TechnicalIndicators17calculate_returnsERKNSt3__16vectorIdNS0_9allocatorIdEEEE, symObjAddr: 0x0, symBinAddr: 0x100008E50, symSize: 0x2A0 }
  - { offsetInCU: 0x6302, offset: 0x6AE0D, size: 0x8, addend: 0x0, symName: __ZN19TechnicalIndicators21simple_moving_averageERKNSt3__16vectorIdNS0_9allocatorIdEEEEm, symObjAddr: 0x2A0, symBinAddr: 0x1000090F0, symSize: 0x2F4 }
  - { offsetInCU: 0x70F8, offset: 0x6BC03, size: 0x8, addend: 0x0, symName: __ZN19TechnicalIndicators13calculate_rsiERKNSt3__16vectorIdNS0_9allocatorIdEEEEi, symObjAddr: 0x594, symBinAddr: 0x1000093E4, symSize: 0x678 }
  - { offsetInCU: 0x9718, offset: 0x6E223, size: 0x8, addend: 0x0, symName: __ZN19TechnicalIndicators28calculate_rolling_volatilityERKNSt3__16vectorIdNS0_9allocatorIdEEEEi, symObjAddr: 0xC0C, symBinAddr: 0x100009A5C, symSize: 0x278 }
  - { offsetInCU: 0xA0B7, offset: 0x6EBC2, size: 0x8, addend: 0x0, symName: __ZN19TechnicalIndicators18calculate_momentumERKNSt3__16vectorIdNS0_9allocatorIdEEEEi, symObjAddr: 0xE84, symBinAddr: 0x100009CD4, symSize: 0x2A0 }
  - { offsetInCU: 0xABEF, offset: 0x6F6FA, size: 0x8, addend: 0x0, symName: __ZN19TechnicalIndicators14compute_spreadERKNSt3__16vectorIdNS0_9allocatorIdEEEES6_, symObjAddr: 0x1124, symBinAddr: 0x100009F74, symSize: 0x1F8 }
  - { offsetInCU: 0xB5A2, offset: 0x700AD, size: 0x8, addend: 0x0, symName: __ZN19TechnicalIndicators21internal_bar_strengthERKNSt3__16vectorIdNS0_9allocatorIdEEEES6_S6_S6_, symObjAddr: 0x131C, symBinAddr: 0x10000A16C, symSize: 0x2E4 }
  - { offsetInCU: 0xC8A4, offset: 0x713AF, size: 0x8, addend: 0x0, symName: __ZN19TechnicalIndicators18candle_informationERKNSt3__16vectorIdNS0_9allocatorIdEEEES6_S6_S6_, symObjAddr: 0x1600, symBinAddr: 0x10000A450, symSize: 0x7D4 }
  - { offsetInCU: 0xF380, offset: 0x73E8B, size: 0x8, addend: 0x0, symName: __ZNSt3__14pairINS_6vectorIdNS_9allocatorIdEEEES4_EC2B8ue170006IRS4_S7_LPv0EEEOT_OT0_, symObjAddr: 0x3874, symBinAddr: 0x10000C600, symSize: 0x104 }
  - { offsetInCU: 0xFB68, offset: 0x74673, size: 0x8, addend: 0x0, symName: __ZNSt3__14pairINS_6vectorIdNS_9allocatorIdEEEES4_EC2B8ue170006IRS4_S7_LPv0EEEOT_OT0_, symObjAddr: 0x3874, symBinAddr: 0x10000C600, symSize: 0x104 }
  - { offsetInCU: 0xFB73, offset: 0x7467E, size: 0x8, addend: 0x0, symName: __ZNSt3__14pairINS_6vectorIdNS_9allocatorIdEEEES4_ED1Ev, symObjAddr: 0x1DD4, symBinAddr: 0x10000AC24, symSize: 0x40 }
  - { offsetInCU: 0xFE67, offset: 0x74972, size: 0x8, addend: 0x0, symName: __ZN19TechnicalIndicators11derivativesERKNSt3__16vectorIdNS0_9allocatorIdEEEE, symObjAddr: 0x1E14, symBinAddr: 0x10000AC64, symSize: 0x3D8 }
  - { offsetInCU: 0x113F8, offset: 0x75F03, size: 0x8, addend: 0x0, symName: __ZN19TechnicalIndicators14log_pct_changeERKNSt3__16vectorIdNS0_9allocatorIdEEEEi, symObjAddr: 0x21EC, symBinAddr: 0x10000B03C, symSize: 0x2AC }
  - { offsetInCU: 0x11F30, offset: 0x76A3B, size: 0x8, addend: 0x0, symName: __ZN19TechnicalIndicators16auto_correlationERKNSt3__16vectorIdNS0_9allocatorIdEEEEii, symObjAddr: 0x2498, symBinAddr: 0x10000B2E8, symSize: 0x370 }
  - { offsetInCU: 0x12B3E, offset: 0x77649, size: 0x8, addend: 0x0, symName: __ZN19TechnicalIndicators8skewnessERKNSt3__16vectorIdNS0_9allocatorIdEEEEi, symObjAddr: 0x2808, symBinAddr: 0x10000B658, symSize: 0x338 }
  - { offsetInCU: 0x13726, offset: 0x78231, size: 0x8, addend: 0x0, symName: __ZN19TechnicalIndicators8kurtosisERKNSt3__16vectorIdNS0_9allocatorIdEEEEi, symObjAddr: 0x2B40, symBinAddr: 0x10000B990, symSize: 0x340 }
  - { offsetInCU: 0x14360, offset: 0x78E6B, size: 0x8, addend: 0x0, symName: __ZN19TechnicalIndicators4kamaERKNSt3__16vectorIdNS0_9allocatorIdEEEEiii, symObjAddr: 0x2E80, symBinAddr: 0x10000BCD0, symSize: 0x398 }
  - { offsetInCU: 0x15284, offset: 0x79D8F, size: 0x8, addend: 0x0, symName: __ZN19TechnicalIndicators12linear_slopeERKNSt3__16vectorIdNS0_9allocatorIdEEEEi, symObjAddr: 0x3218, symBinAddr: 0x10000C068, symSize: 0x27C }
  - { offsetInCU: 0x15C87, offset: 0x7A792, size: 0x8, addend: 0x0, symName: __ZN19TechnicalIndicators25close_to_close_volatilityERKNSt3__16vectorIdNS0_9allocatorIdEEEEi, symObjAddr: 0x3494, symBinAddr: 0x10000C2E4, symSize: 0x6C }
  - { offsetInCU: 0x15FC3, offset: 0x7AACE, size: 0x8, addend: 0x0, symName: __ZN19TechnicalIndicators20parkinson_volatilityERKNSt3__16vectorIdNS0_9allocatorIdEEEES6_i, symObjAddr: 0x3500, symBinAddr: 0x10000C350, symSize: 0x2B0 }
  - { offsetInCU: 0x26, offset: 0x7B721, size: 0x8, addend: 0x0, symName: __ZNSt3__16vectorIdNS_9allocatorIdEEED1B8ue170006Ev, symObjAddr: 0x0, symBinAddr: 0x10000C704, symSize: 0x30 }
  - { offsetInCU: 0x3AF5, offset: 0x7F1F0, size: 0x8, addend: 0x0, symName: __ZNSt3__16vectorIdNS_9allocatorIdEEED1B8ue170006Ev, symObjAddr: 0x0, symBinAddr: 0x10000C704, symSize: 0x30 }
  - { offsetInCU: 0x3C4C, offset: 0x7F347, size: 0x8, addend: 0x0, symName: __ZN9SIMDUtils8has_neonEv, symObjAddr: 0x30, symBinAddr: 0x10000C734, symSize: 0x8 }
  - { offsetInCU: 0x3C62, offset: 0x7F35D, size: 0x8, addend: 0x0, symName: __ZN9SIMDUtils8has_avx2Ev, symObjAddr: 0x38, symBinAddr: 0x10000C73C, symSize: 0x8 }
  - { offsetInCU: 0x3C78, offset: 0x7F373, size: 0x8, addend: 0x0, symName: __ZN9SIMDUtils16has_simd_supportEv, symObjAddr: 0x40, symBinAddr: 0x10000C744, symSize: 0x8 }
  - { offsetInCU: 0x3FF4, offset: 0x7F6EF, size: 0x8, addend: 0x0, symName: __ZN9SIMDUtils17simd_rolling_meanERKNSt3__16vectorIdNS0_9allocatorIdEEEEm, symObjAddr: 0x48, symBinAddr: 0x10000C74C, symSize: 0x270 }
  - { offsetInCU: 0xCE67, offset: 0x8D089, size: 0x8, addend: 0x0, symName: __ZNSt3__1lsB8ue170006IcNS_11char_traitsIcEEEERNS_13basic_ostreamIT_T0_EES7_RKNS_9__iom_t10IS4_EE, symObjAddr: 0x310, symBinAddr: 0x10000CD84, symSize: 0x198 }
  - { offsetInCU: 0x12E1C, offset: 0x9303E, size: 0x8, addend: 0x0, symName: __ZN13FastCSVWriter15format_datetimeERKNSt3__16chrono10time_pointINS1_12system_clockENS1_8durationIxNS0_5ratioILl1ELl1000000EEEEEEE, symObjAddr: 0x0, symBinAddr: 0x10000CB1C, symSize: 0x268 }
  - { offsetInCU: 0x137DC, offset: 0x939FE, size: 0x8, addend: 0x0, symName: __ZNSt3__119basic_ostringstreamIcNS_11char_traitsIcEENS_9allocatorIcEEED1Ev, symObjAddr: 0x4A8, symBinAddr: 0x10000CF1C, symSize: 0x84 }
  - { offsetInCU: 0x13BCF, offset: 0x93DF1, size: 0x8, addend: 0x0, symName: __ZNSt3__1lsB8ue170006IcNS_11char_traitsIcEEEERNS_13basic_ostreamIT_T0_EES7_RKNS_9__iom_t10IS4_EE, symObjAddr: 0x310, symBinAddr: 0x10000CD84, symSize: 0x198 }
  - { offsetInCU: 0x13E75, offset: 0x94097, size: 0x8, addend: 0x0, symName: __ZN13FastCSVWriter13format_doubleEdi, symObjAddr: 0x52C, symBinAddr: 0x10000CFA0, symSize: 0x278 }
  - { offsetInCU: 0x146F0, offset: 0x94912, size: 0x8, addend: 0x0, symName: __ZN13FastCSVWriter14safe_get_valueERKNSt3__16vectorIdNS0_9allocatorIdEEEEm, symObjAddr: 0x7A4, symBinAddr: 0x10000D218, symSize: 0x28 }
  - { offsetInCU: 0x14717, offset: 0x94939, size: 0x8, addend: 0x0, symName: __ZN13FastCSVWriter14safe_get_valueERKNSt3__16vectorIdNS0_9allocatorIdEEEEm, symObjAddr: 0x7A4, symBinAddr: 0x10000D218, symSize: 0x28 }
  - { offsetInCU: 0x14807, offset: 0x94A29, size: 0x8, addend: 0x0, symName: __ZN13FastCSVWriter18safe_get_int_valueERKNSt3__16vectorIiNS0_9allocatorIiEEEEm, symObjAddr: 0x7CC, symBinAddr: 0x10000D240, symSize: 0x24 }
  - { offsetInCU: 0x1482E, offset: 0x94A50, size: 0x8, addend: 0x0, symName: __ZN13FastCSVWriter18safe_get_int_valueERKNSt3__16vectorIiNS0_9allocatorIiEEEEm, symObjAddr: 0x7CC, symBinAddr: 0x10000D240, symSize: 0x24 }
  - { offsetInCU: 0x14DBC, offset: 0x94FDE, size: 0x8, addend: 0x0, symName: __ZN13FastCSVWriter25write_ohlcv_with_featuresERKNSt3__112basic_stringIcNS0_11char_traitsIcEENS0_9allocatorIcEEEERK9OHLCVDataRKNS0_6vectorIdNS4_IdEEEESG_SG_SG_SG_SG_SG_SG_SG_SG_SG_SG_SG_SG_SG_SG_SG_SG_RKNSC_IiNS4_IiEEEESG_SG_S8_, symObjAddr: 0x7F0, symBinAddr: 0x10000D264, symSize: 0x115C }
  - { offsetInCU: 0x1BA5A, offset: 0x9BC7C, size: 0x8, addend: 0x0, symName: __ZNSt3__114basic_ofstreamIcNS_11char_traitsIcEEEC1ERKNS_12basic_stringIcS2_NS_9allocatorIcEEEEj, symObjAddr: 0x194C, symBinAddr: 0x10000E3C0, symSize: 0x114 }
  - { offsetInCU: 0x1BBDC, offset: 0x9BDFE, size: 0x8, addend: 0x0, symName: __ZNSt3__114basic_ofstreamIcNS_11char_traitsIcEEED1Ev, symObjAddr: 0x1A60, symBinAddr: 0x10000E4D4, symSize: 0x58 }
...
